target datalayout = "e-m:e-p270:32:32-p271:32:32-p272:64:64-i64:64-i128:128-f80:128-n8:16:32:64-S128"
target triple = "x86_64-pc-linux-gnu"

%struct.RelFileLocator = type { i32, i32, i32 }
%struct.GinState = type { ptr, i8, ptr, [32 x ptr], [32 x %struct.FmgrInfo], [32 x %struct.FmgrInfo], [32 x %struct.FmgrInfo], [32 x %struct.FmgrInfo], [32 x %struct.FmgrInfo], [32 x %struct.FmgrInfo], [32 x i8], [32 x i32] }
%struct.FmgrInfo = type { ptr, i32, i16, i8, i8, i8, ptr, ptr, ptr }
%struct.RelationData = type { %struct.RelFileLocator, ptr, i32, i32, i8, i8, i8, i8, i8, i32, i32, i32, i32, ptr, ptr, i32, %struct.LockInfoData, ptr, ptr, ptr, ptr, ptr, i8, ptr, ptr, ptr, ptr, ptr, ptr, i32, ptr, i8, ptr, ptr, i32, i8, i32, ptr, i8, ptr, ptr, ptr, ptr, ptr, ptr, ptr, i32, ptr, ptr, ptr, ptr, ptr, ptr, ptr, ptr, ptr, ptr, ptr, ptr, ptr, ptr, ptr, ptr, ptr, ptr, ptr, i32, i8, ptr }
%struct.LockInfoData = type { %struct.LockRelId }
%struct.LockRelId = type { i32, i32 }
%struct.FormData_pg_class = type { i32, %struct.nameData, i32, i32, i32, i32, i32, i32, i32, i32, float, i32, i32, i8, i8, i8, i8, i16, i16, i8, i8, i8, i8, i8, i8, i8, i8, i32, i32, i32 }
%struct.nameData = type { [64 x i8] }
%struct.IndexBulkDeleteResult = type { i32, i8, double, double, i32, i32, i32 }
%struct.FunctionCallInfoBaseData = type { ptr, ptr, ptr, i32, i8, i16, [0 x %struct.NullableDatum] }
%struct.NullableDatum = type { i64, i8 }
%struct.FormData_pg_index = type { i32, i32, i16, i16, i8, i8, i8, i8, i8, i8, i8, i8, i8, i8, i8, %struct.int2vector }
%struct.int2vector = type { i32, i32, i32, i32, i32, i32, [0 x i16] }

@.str.1 = private unnamed_addr constant [10 x i8] c"ginfast.c\00", align 1
@.str.4 = private unnamed_addr constant [24 x i8] c"recovery is in progress\00", align 1
@.str.5 = private unnamed_addr constant [55 x i8] c"GIN pending list cannot be cleaned up during recovery.\00", align 1
@__func__.gin_clean_pending_list = private unnamed_addr constant [23 x i8] c"gin_clean_pending_list\00", align 1
@.str.6 = private unnamed_addr constant [24 x i8] c"\22%s\22 is not a GIN index\00", align 1
@.str.7 = private unnamed_addr constant [50 x i8] c"cannot access temporary indexes of other sessions\00", align 1
@.str.8 = private unnamed_addr constant [24 x i8] c"index \22%s\22 is not valid\00", align 1

; Function Attrs: inlinehint nounwind uwtable
define internal i64 @Int64GetDatum(i64 noundef %0) #4 {
  %2 = alloca i64, align 8
  store i64 %0, ptr %2, align 8
  %3 = load i64, ptr %2, align 8
  ret i64 %3
}

; Function Attrs: inlinehint nounwind uwtable
define internal i32 @DatumGetObjectId(i64 noundef %0) #4 {
  %2 = alloca i64, align 8
  store i64 %0, ptr %2, align 8
  %3 = load i64, ptr %2, align 8
  %4 = trunc i64 %3 to i32
  ret i32 %4
}

; Function Attrs: nounwind uwtable
define dso_local i64 @gin_clean_pending_list(ptr noundef %0) #0 {
  %2 = alloca ptr, align 8
  %3 = alloca i32, align 4
  %4 = alloca ptr, align 8
  %5 = alloca %struct.IndexBulkDeleteResult, align 8
  %6 = alloca %struct.GinState, align 8
  store ptr %0, ptr %2, align 8
  call void @llvm.lifetime.start.p0(i64 4, ptr %3) #8
  %7 = load ptr, ptr %2, align 8
  %8 = getelementptr inbounds nuw %struct.FunctionCallInfoBaseData, ptr %7, i32 0, i32 6
  %9 = getelementptr inbounds [0 x %struct.NullableDatum], ptr %8, i64 0, i64 0
  %10 = getelementptr inbounds nuw %struct.NullableDatum, ptr %9, i32 0, i32 0
  %11 = load i64, ptr %10, align 8
  %12 = call i32 @DatumGetObjectId(i64 noundef %11)
  store i32 %12, ptr %3, align 4
  call void @llvm.lifetime.start.p0(i64 8, ptr %4) #8
  %13 = load i32, ptr %3, align 4
  %14 = call ptr @index_open(i32 noundef %13, i32 noundef 3)
  store ptr %14, ptr %4, align 8
  call void @llvm.lifetime.start.p0(i64 40, ptr %5) #8
  %15 = call zeroext i1 @RecoveryInProgress()
  br i1 %15, label %16, label %29

16:                                               ; preds = %1
  br label %17

17:                                               ; preds = %16
  br i1 true, label %18, label %20

18:                                               ; preds = %17
  %19 = call zeroext i1 @errstart_cold(i32 noundef 21, ptr noundef null) #9
  br i1 %19, label %22, label %26

20:                                               ; preds = %17
  %21 = call zeroext i1 @errstart(i32 noundef 21, ptr noundef null)
  br i1 %21, label %22, label %26

22:                                               ; preds = %20, %18
  %23 = call i32 @errcode(i32 noundef 325)
  %24 = call i32 (ptr, ...) @errmsg(ptr noundef @.str.4)
  %25 = call i32 (ptr, ...) @errhint(ptr noundef @.str.5)
  call void @errfinish(ptr noundef @.str.1, i32 noundef 1041, ptr noundef @__func__.gin_clean_pending_list)
  br label %26

26:                                               ; preds = %22, %20, %18
  unreachable

27:                                               ; No predecessors!
  br label %28

28:                                               ; preds = %27
  br label %29

29:                                               ; preds = %28, %1
  %30 = load ptr, ptr %4, align 8
  %31 = getelementptr inbounds nuw %struct.RelationData, ptr %30, i32 0, i32 13
  %32 = load ptr, ptr %31, align 8
  %33 = getelementptr inbounds nuw %struct.FormData_pg_class, ptr %32, i32 0, i32 16
  %34 = load i8, ptr %33, align 1
  %35 = sext i8 %34 to i32
  %36 = icmp ne i32 %35, 105
  br i1 %36, label %44, label %37

37:                                               ; preds = %29
  %38 = load ptr, ptr %4, align 8
  %39 = getelementptr inbounds nuw %struct.RelationData, ptr %38, i32 0, i32 13
  %40 = load ptr, ptr %39, align 8
  %41 = getelementptr inbounds nuw %struct.FormData_pg_class, ptr %40, i32 0, i32 6
  %42 = load i32, ptr %41, align 4
  %43 = icmp ne i32 %42, 2742
  br i1 %43, label %44, label %62

44:                                               ; preds = %37, %29
  br label %45

45:                                               ; preds = %44
  br i1 true, label %46, label %48

46:                                               ; preds = %45
  %47 = call zeroext i1 @errstart_cold(i32 noundef 21, ptr noundef null) #9
  br i1 %47, label %50, label %59

48:                                               ; preds = %45
  %49 = call zeroext i1 @errstart(i32 noundef 21, ptr noundef null)
  br i1 %49, label %50, label %59

50:                                               ; preds = %48, %46
  %51 = call i32 @errcode(i32 noundef 151027844)
  %52 = load ptr, ptr %4, align 8
  %53 = getelementptr inbounds nuw %struct.RelationData, ptr %52, i32 0, i32 13
  %54 = load ptr, ptr %53, align 8
  %55 = getelementptr inbounds nuw %struct.FormData_pg_class, ptr %54, i32 0, i32 1
  %56 = getelementptr inbounds nuw %struct.nameData, ptr %55, i32 0, i32 0
  %57 = getelementptr inbounds [64 x i8], ptr %56, i64 0, i64 0
  %58 = call i32 (ptr, ...) @errmsg(ptr noundef @.str.6, ptr noundef %57)
  call void @errfinish(ptr noundef @.str.1, i32 noundef 1049, ptr noundef @__func__.gin_clean_pending_list)
  br label %59

59:                                               ; preds = %50, %48, %46
  unreachable

60:                                               ; No predecessors!
  br label %61

61:                                               ; preds = %60
  br label %62

62:                                               ; preds = %61, %37
  %63 = load ptr, ptr %4, align 8
  %64 = getelementptr inbounds nuw %struct.RelationData, ptr %63, i32 0, i32 13
  %65 = load ptr, ptr %64, align 8
  %66 = getelementptr inbounds nuw %struct.FormData_pg_class, ptr %65, i32 0, i32 15
  %67 = load i8, ptr %66, align 2
  %68 = sext i8 %67 to i32
  %69 = icmp eq i32 %68, 116
  br i1 %69, label %70, label %87

70:                                               ; preds = %62
  %71 = load ptr, ptr %4, align 8
  %72 = getelementptr inbounds nuw %struct.RelationData, ptr %71, i32 0, i32 4
  %73 = load i8, ptr %72, align 8, !range !4, !noundef !5
  %74 = trunc i8 %73 to i1
  br i1 %74, label %87, label %75

75:                                               ; preds = %70
  br label %76

76:                                               ; preds = %75
  br i1 true, label %77, label %79

77:                                               ; preds = %76
  %78 = call zeroext i1 @errstart_cold(i32 noundef 21, ptr noundef null) #9
  br i1 %78, label %81, label %84

79:                                               ; preds = %76
  %80 = call zeroext i1 @errstart(i32 noundef 21, ptr noundef null)
  br i1 %80, label %81, label %84

81:                                               ; preds = %79, %77
  %82 = call i32 @errcode(i32 noundef 1088)
  %83 = call i32 (ptr, ...) @errmsg(ptr noundef @.str.7)
  call void @errfinish(ptr noundef @.str.1, i32 noundef 1059, ptr noundef @__func__.gin_clean_pending_list)
  br label %84

84:                                               ; preds = %81, %79, %77
  unreachable

85:                                               ; No predecessors!
  br label %86

86:                                               ; preds = %85
  br label %87

87:                                               ; preds = %86, %70, %62
  %88 = load i32, ptr %3, align 4
  %89 = call i32 @GetUserId()
  %90 = call zeroext i1 @object_ownercheck(i32 noundef 1259, i32 noundef %88, i32 noundef %89)
  br i1 %90, label %98, label %91

91:                                               ; preds = %87
  %92 = load ptr, ptr %4, align 8
  %93 = getelementptr inbounds nuw %struct.RelationData, ptr %92, i32 0, i32 13
  %94 = load ptr, ptr %93, align 8
  %95 = getelementptr inbounds nuw %struct.FormData_pg_class, ptr %94, i32 0, i32 1
  %96 = getelementptr inbounds nuw %struct.nameData, ptr %95, i32 0, i32 0
  %97 = getelementptr inbounds [64 x i8], ptr %96, i64 0, i64 0
  call void @aclcheck_error(i32 noundef 2, i32 noundef 20, ptr noundef %97)
  br label %98

98:                                               ; preds = %91, %87
  call void @llvm.memset.p0.i64(ptr align 8 %5, i8 0, i64 40, i1 false)
  %99 = load ptr, ptr %4, align 8
  %100 = getelementptr inbounds nuw %struct.RelationData, ptr %99, i32 0, i32 48
  %101 = load ptr, ptr %100, align 8
  %102 = getelementptr inbounds nuw %struct.FormData_pg_index, ptr %101, i32 0, i32 10
  %103 = load i8, ptr %102, align 2, !range !4, !noundef !5
  %104 = trunc i8 %103 to i1
  br i1 %104, label %105, label %107

105:                                              ; preds = %98
  call void @llvm.lifetime.start.p0(i64 9656, ptr %6) #8
  %106 = load ptr, ptr %4, align 8
  call void @initGinState(ptr noundef %6, ptr noundef %106)
  call void @ginInsertCleanup(ptr noundef %6, i1 noundef zeroext true, i1 noundef zeroext true, i1 noundef zeroext true, ptr noundef %5)
  call void @llvm.lifetime.end.p0(i64 9656, ptr %6) #8
  br label %125

107:                                              ; preds = %98
  br label %108

108:                                              ; preds = %107
  br i1 false, label %109, label %111

109:                                              ; preds = %108
  %110 = call zeroext i1 @errstart_cold(i32 noundef 14, ptr noundef null) #9
  br i1 %110, label %113, label %122

111:                                              ; preds = %108
  %112 = call zeroext i1 @errstart(i32 noundef 14, ptr noundef null)
  br i1 %112, label %113, label %122

113:                                              ; preds = %111, %109
  %114 = call i32 @errcode(i32 noundef 325)
  %115 = load ptr, ptr %4, align 8
  %116 = getelementptr inbounds nuw %struct.RelationData, ptr %115, i32 0, i32 13
  %117 = load ptr, ptr %116, align 8
  %118 = getelementptr inbounds nuw %struct.FormData_pg_class, ptr %117, i32 0, i32 1
  %119 = getelementptr inbounds nuw %struct.nameData, ptr %118, i32 0, i32 0
  %120 = getelementptr inbounds [64 x i8], ptr %119, i64 0, i64 0
  %121 = call i32 (ptr, ...) @errmsg(ptr noundef @.str.8, ptr noundef %120)
  call void @errfinish(ptr noundef @.str.1, i32 noundef 1086, ptr noundef @__func__.gin_clean_pending_list)
  br label %122

122:                                              ; preds = %113, %111, %109
  br label %123

123:                                              ; preds = %122
  br label %124

124:                                              ; preds = %123
  br label %125

125:                                              ; preds = %124, %105
  %126 = load ptr, ptr %4, align 8
  call void @index_close(ptr noundef %126, i32 noundef 3)
  %127 = getelementptr inbounds nuw %struct.IndexBulkDeleteResult, ptr %5, i32 0, i32 5
  %128 = load i32, ptr %127, align 4
  %129 = zext i32 %128 to i64
  %130 = call i64 @Int64GetDatum(i64 noundef %129)
  call void @llvm.lifetime.end.p0(i64 40, ptr %5) #8
  call void @llvm.lifetime.end.p0(i64 8, ptr %4) #8
  call void @llvm.lifetime.end.p0(i64 4, ptr %3) #8
  ret i64 %130
}