; Function Attrs: nounwind uwtable
define dso_local range(i64 0, 4294967296) i64 @gin_clean_pending_list(ptr noundef readonly captures(none) %0) local_unnamed_addr #0 {
  %2 = alloca %struct.IndexBulkDeleteResult, align 8
  %3 = alloca %struct.GinState, align 8
  %4 = getelementptr inbounds nuw i8, ptr %0, i64 32
  %5 = load i64, ptr %4, align 8
  %6 = trunc i64 %5 to i32
  %7 = tail call ptr @index_open(i32 noundef %6, i32 noundef 3) #9
  call void @llvm.lifetime.start.p0(i64 40, ptr nonnull %2) #9
  %8 = tail call zeroext i1 @RecoveryInProgress() #9
  br i1 %8, label %9, label %14

9:                                                ; preds = %1
  %10 = tail call zeroext i1 @errstart_cold(i32 noundef 21, ptr noundef null) #10
  tail call void @llvm.assume(i1 %10)
  %11 = tail call i32 @errcode(i32 noundef 325) #9
  %12 = tail call i32 (ptr, ...) @errmsg(ptr noundef nonnull @.str.4) #9
  %13 = tail call i32 (ptr, ...) @errhint(ptr noundef nonnull @.str.5) #9
  tail call void @errfinish(ptr noundef nonnull @.str.1, i32 noundef 1041, ptr noundef nonnull @__func__.gin_clean_pending_list) #9
  unreachable

14:                                               ; preds = %1
  %15 = getelementptr inbounds nuw i8, ptr %7, i64 56
  %16 = load ptr, ptr %15, align 8
  %17 = getelementptr inbounds nuw i8, ptr %16, i64 115
  %18 = load i8, ptr %17, align 1
  %.not = icmp eq i8 %18, 105
  br i1 %.not, label %19, label %22

19:                                               ; preds = %14
  %20 = getelementptr inbounds nuw i8, ptr %16, i64 84
  %21 = load i32, ptr %20, align 4
  %.not12 = icmp eq i32 %21, 2742
  br i1 %.not12, label %28, label %22

22:                                               ; preds = %19, %14
  %23 = tail call zeroext i1 @errstart_cold(i32 noundef 21, ptr noundef null) #10
  tail call void @llvm.assume(i1 %23)
  %24 = tail call i32 @errcode(i32 noundef 151027844) #9
  %25 = load ptr, ptr %15, align 8
  %26 = getelementptr inbounds nuw i8, ptr %25, i64 4
  %27 = tail call i32 (ptr, ...) @errmsg(ptr noundef nonnull @.str.6, ptr noundef nonnull %26) #9
  tail call void @errfinish(ptr noundef nonnull @.str.1, i32 noundef 1049, ptr noundef nonnull @__func__.gin_clean_pending_list) #9
  unreachable

28:                                               ; preds = %19
  %29 = getelementptr inbounds nuw i8, ptr %16, i64 114
  %30 = load i8, ptr %29, align 2
  %31 = icmp eq i8 %30, 116
  br i1 %31, label %32, label %40

32:                                               ; preds = %28
  %33 = getelementptr inbounds nuw i8, ptr %7, i64 32
  %34 = load i8, ptr %33, align 8, !range !18, !noundef !19
  %35 = trunc nuw i8 %34 to i1
  br i1 %35, label %40, label %36

36:                                               ; preds = %32
  %37 = tail call zeroext i1 @errstart_cold(i32 noundef 21, ptr noundef null) #10
  tail call void @llvm.assume(i1 %37)
  %38 = tail call i32 @errcode(i32 noundef 1088) #9
  %39 = tail call i32 (ptr, ...) @errmsg(ptr noundef nonnull @.str.7) #9
  tail call void @errfinish(ptr noundef nonnull @.str.1, i32 noundef 1059, ptr noundef nonnull @__func__.gin_clean_pending_list) #9
  unreachable

40:                                               ; preds = %32, %28
  %41 = tail call i32 @GetUserId() #9
  %42 = tail call zeroext i1 @object_ownercheck(i32 noundef 1259, i32 noundef %6, i32 noundef %41) #9
  br i1 %42, label %46, label %43

43:                                               ; preds = %40
  %44 = load ptr, ptr %15, align 8
  %45 = getelementptr inbounds nuw i8, ptr %44, i64 4
  tail call void @aclcheck_error(i32 noundef 2, i32 noundef 20, ptr noundef nonnull %45) #9
  br label %46

46:                                               ; preds = %43, %40
  call void @llvm.memset.p0.i64(ptr noundef nonnull align 8 dereferenceable(40) %2, i8 0, i64 40, i1 false)
  %47 = getelementptr inbounds nuw i8, ptr %7, i64 328
  %48 = load ptr, ptr %47, align 8
  %49 = getelementptr inbounds nuw i8, ptr %48, i64 18
  %50 = load i8, ptr %49, align 2, !range !18, !noundef !19
  %51 = trunc nuw i8 %50 to i1
  br i1 %51, label %52, label %53

52:                                               ; preds = %46
  call void @llvm.lifetime.start.p0(i64 9656, ptr nonnull %3) #9
  call void @initGinState(ptr noundef nonnull %3, ptr noundef nonnull %7) #9
  call void @ginInsertCleanup(ptr noundef nonnull %3, i1 noundef zeroext true, i1 noundef zeroext true, i1 noundef zeroext true, ptr noundef nonnull %2)
  call void @llvm.lifetime.end.p0(i64 9656, ptr nonnull %3) #9
  br label %60

53:                                               ; preds = %46
  %54 = tail call zeroext i1 @errstart(i32 noundef 14, ptr noundef null) #9
  br i1 %54, label %55, label %60

55:                                               ; preds = %53
  %56 = tail call i32 @errcode(i32 noundef 325) #9
  %57 = load ptr, ptr %15, align 8
  %58 = getelementptr inbounds nuw i8, ptr %57, i64 4
  %59 = tail call i32 (ptr, ...) @errmsg(ptr noundef nonnull @.str.8, ptr noundef nonnull %58) #9
  tail call void @errfinish(ptr noundef nonnull @.str.1, i32 noundef 1086, ptr noundef nonnull @__func__.gin_clean_pending_list) #9
  br label %60

60:                                               ; preds = %53, %55, %52
  call void @index_close(ptr noundef nonnull %7, i32 noundef 3) #9
  %61 = getelementptr inbounds nuw i8, ptr %2, i64 28
  %62 = load i32, ptr %61, align 4
  %63 = zext i32 %62 to i64
  call void @llvm.lifetime.end.p0(i64 40, ptr nonnull %2) #9
  ret i64 %63
}